target datalayout = "e-m:e-p270:32:32-p271:32:32-p272:64:64-i64:64-i128:128-f80:128-n8:16:32:64-S128"
target triple = "x86_64-pc-linux-gnu"

%"class.icu_77::RBBITableBuilder" = type <{ ptr, ptr, ptr, ptr, ptr, ptr, i32, [4 x i8] }>
%"class.icu_77::UObject" = type { ptr }
%"class.icu_77::UnicodeString" = type { %"class.icu_77::Replaceable", %"union.icu_77::UnicodeString::StackBufferOrFields" }
%"class.icu_77::Replaceable" = type { %"class.icu_77::UObject" }
%"union.icu_77::UnicodeString::StackBufferOrFields" = type { %struct.anon.0, [32 x i8] }
%struct.anon.0 = type { i16, i32, i32, ptr }
%"class.icu_77::RBBINode" = type { i32, ptr, ptr, ptr, ptr, i32, %"class.icu_77::UnicodeString", i32, i32, i8, i32, i8, i8, i8, ptr, ptr, ptr }

; Function Attrs: mustprogress uwtable
define void @_ZN6icu_7716RBBITableBuilder12calcFirstPosEPNS_8RBBINodeE(ptr noundef nonnull align 8 dereferenceable(52) %0, ptr noundef %1) #0 align 2 {
  %3 = alloca ptr, align 8
  %4 = alloca ptr, align 8
  store ptr %0, ptr %3, align 8, !tbaa !3
  store ptr %1, ptr %4, align 8, !tbaa !37
  %5 = load ptr, ptr %3, align 8
  %6 = load ptr, ptr %4, align 8, !tbaa !37
  %7 = icmp eq ptr %6, null
  br i1 %7, label %8, label %9

8:                                                ; preds = %2
  br label %120

9:                                                ; preds = %2
  %10 = load ptr, ptr %4, align 8, !tbaa !37
  %11 = getelementptr inbounds nuw %"class.icu_77::RBBINode", ptr %10, i32 0, i32 0
  %12 = load i32, ptr %11, align 8, !tbaa !58
  %13 = icmp eq i32 %12, 3
  br i1 %13, label %29, label %14

14:                                               ; preds = %9
  %15 = load ptr, ptr %4, align 8, !tbaa !37
  %16 = getelementptr inbounds nuw %"class.icu_77::RBBINode", ptr %15, i32 0, i32 0
  %17 = load i32, ptr %16, align 8, !tbaa !58
  %18 = icmp eq i32 %17, 6
  br i1 %18, label %29, label %19

19:                                               ; preds = %14
  %20 = load ptr, ptr %4, align 8, !tbaa !37
  %21 = getelementptr inbounds nuw %"class.icu_77::RBBINode", ptr %20, i32 0, i32 0
  %22 = load i32, ptr %21, align 8, !tbaa !58
  %23 = icmp eq i32 %22, 4
  br i1 %23, label %29, label %24

24:                                               ; preds = %19
  %25 = load ptr, ptr %4, align 8, !tbaa !37
  %26 = getelementptr inbounds nuw %"class.icu_77::RBBINode", ptr %25, i32 0, i32 0
  %27 = load i32, ptr %26, align 8, !tbaa !58
  %28 = icmp eq i32 %27, 5
  br i1 %28, label %29, label %36

29:                                               ; preds = %24, %19, %14, %9
  %30 = load ptr, ptr %4, align 8, !tbaa !37
  %31 = getelementptr inbounds nuw %"class.icu_77::RBBINode", ptr %30, i32 0, i32 14
  %32 = load ptr, ptr %31, align 8, !tbaa !60
  %33 = load ptr, ptr %4, align 8, !tbaa !37
  %34 = getelementptr inbounds nuw %"class.icu_77::RBBITableBuilder", ptr %5, i32 0, i32 2
  %35 = load ptr, ptr %34, align 8, !tbaa !19
  call void @_ZN6icu_777UVector10addElementEPvR10UErrorCode(ptr noundef nonnull align 8 dereferenceable(40) %32, ptr noundef %33, ptr noundef nonnull align 4 dereferenceable(4) %35)
  br label %120

36:                                               ; preds = %24
  %37 = load ptr, ptr %4, align 8, !tbaa !37
  %38 = getelementptr inbounds nuw %"class.icu_77::RBBINode", ptr %37, i32 0, i32 2
  %39 = load ptr, ptr %38, align 8, !tbaa !48
  call void @_ZN6icu_7716RBBITableBuilder12calcFirstPosEPNS_8RBBINodeE(ptr noundef nonnull align 8 dereferenceable(52) %5, ptr noundef %39)
  %40 = load ptr, ptr %4, align 8, !tbaa !37
  %41 = getelementptr inbounds nuw %"class.icu_77::RBBINode", ptr %40, i32 0, i32 3
  %42 = load ptr, ptr %41, align 8, !tbaa !53
  call void @_ZN6icu_7716RBBITableBuilder12calcFirstPosEPNS_8RBBINodeE(ptr noundef nonnull align 8 dereferenceable(52) %5, ptr noundef %42)
  %43 = load ptr, ptr %4, align 8, !tbaa !37
  %44 = getelementptr inbounds nuw %"class.icu_77::RBBINode", ptr %43, i32 0, i32 0
  %45 = load i32, ptr %44, align 8, !tbaa !58
  %46 = icmp eq i32 %45, 9
  br i1 %46, label %47, label %64

47:                                               ; preds = %36
  %48 = load ptr, ptr %4, align 8, !tbaa !37
  %49 = getelementptr inbounds nuw %"class.icu_77::RBBINode", ptr %48, i32 0, i32 14
  %50 = load ptr, ptr %49, align 8, !tbaa !60
  %51 = load ptr, ptr %4, align 8, !tbaa !37
  %52 = getelementptr inbounds nuw %"class.icu_77::RBBINode", ptr %51, i32 0, i32 2
  %53 = load ptr, ptr %52, align 8, !tbaa !48
  %54 = getelementptr inbounds nuw %"class.icu_77::RBBINode", ptr %53, i32 0, i32 14
  %55 = load ptr, ptr %54, align 8, !tbaa !60
  call void @_ZN6icu_7716RBBITableBuilder6setAddEPNS_7UVectorES2_(ptr noundef nonnull align 8 dereferenceable(52) %5, ptr noundef %50, ptr noundef %55)
  %56 = load ptr, ptr %4, align 8, !tbaa !37
  %57 = getelementptr inbounds nuw %"class.icu_77::RBBINode", ptr %56, i32 0, i32 14
  %58 = load ptr, ptr %57, align 8, !tbaa !60
  %59 = load ptr, ptr %4, align 8, !tbaa !37
  %60 = getelementptr inbounds nuw %"class.icu_77::RBBINode", ptr %59, i32 0, i32 3
  %61 = load ptr, ptr %60, align 8, !tbaa !53
  %62 = getelementptr inbounds nuw %"class.icu_77::RBBINode", ptr %61, i32 0, i32 14
  %63 = load ptr, ptr %62, align 8, !tbaa !60
  call void @_ZN6icu_7716RBBITableBuilder6setAddEPNS_7UVectorES2_(ptr noundef nonnull align 8 dereferenceable(52) %5, ptr noundef %58, ptr noundef %63)
  br label %120

64:                                               ; preds = %36
  %65 = load ptr, ptr %4, align 8, !tbaa !37
  %66 = getelementptr inbounds nuw %"class.icu_77::RBBINode", ptr %65, i32 0, i32 0
  %67 = load i32, ptr %66, align 8, !tbaa !58
  %68 = icmp eq i32 %67, 8
  br i1 %68, label %69, label %94

69:                                               ; preds = %64
  %70 = load ptr, ptr %4, align 8, !tbaa !37
  %71 = getelementptr inbounds nuw %"class.icu_77::RBBINode", ptr %70, i32 0, i32 14
  %72 = load ptr, ptr %71, align 8, !tbaa !60
  %73 = load ptr, ptr %4, align 8, !tbaa !37
  %74 = getelementptr inbounds nuw %"class.icu_77::RBBINode", ptr %73, i32 0, i32 2
  %75 = load ptr, ptr %74, align 8, !tbaa !48
  %76 = getelementptr inbounds nuw %"class.icu_77::RBBINode", ptr %75, i32 0, i32 14
  %77 = load ptr, ptr %76, align 8, !tbaa !60
  call void @_ZN6icu_7716RBBITableBuilder6setAddEPNS_7UVectorES2_(ptr noundef nonnull align 8 dereferenceable(52) %5, ptr noundef %72, ptr noundef %77)
  %78 = load ptr, ptr %4, align 8, !tbaa !37
  %79 = getelementptr inbounds nuw %"class.icu_77::RBBINode", ptr %78, i32 0, i32 2
  %80 = load ptr, ptr %79, align 8, !tbaa !48
  %81 = getelementptr inbounds nuw %"class.icu_77::RBBINode", ptr %80, i32 0, i32 9
  %82 = load i8, ptr %81, align 8, !tbaa !59
  %83 = icmp ne i8 %82, 0
  br i1 %83, label %84, label %93

84:                                               ; preds = %69
  %85 = load ptr, ptr %4, align 8, !tbaa !37
  %86 = getelementptr inbounds nuw %"class.icu_77::RBBINode", ptr %85, i32 0, i32 14
  %87 = load ptr, ptr %86, align 8, !tbaa !60
  %88 = load ptr, ptr %4, align 8, !tbaa !37
  %89 = getelementptr inbounds nuw %"class.icu_77::RBBINode", ptr %88, i32 0, i32 3
  %90 = load ptr, ptr %89, align 8, !tbaa !53
  %91 = getelementptr inbounds nuw %"class.icu_77::RBBINode", ptr %90, i32 0, i32 14
  %92 = load ptr, ptr %91, align 8, !tbaa !60
  call void @_ZN6icu_7716RBBITableBuilder6setAddEPNS_7UVectorES2_(ptr noundef nonnull align 8 dereferenceable(52) %5, ptr noundef %87, ptr noundef %92)
  br label %93

93:                                               ; preds = %84, %69
  br label %119

94:                                               ; preds = %64
  %95 = load ptr, ptr %4, align 8, !tbaa !37
  %96 = getelementptr inbounds nuw %"class.icu_77::RBBINode", ptr %95, i32 0, i32 0
  %97 = load i32, ptr %96, align 8, !tbaa !58
  %98 = icmp eq i32 %97, 10
  br i1 %98, label %109, label %99

99:                                               ; preds = %94
  %100 = load ptr, ptr %4, align 8, !tbaa !37
  %101 = getelementptr inbounds nuw %"class.icu_77::RBBINode", ptr %100, i32 0, i32 0
  %102 = load i32, ptr %101, align 8, !tbaa !58
  %103 = icmp eq i32 %102, 12
  br i1 %103, label %109, label %104

104:                                              ; preds = %99
  %105 = load ptr, ptr %4, align 8, !tbaa !37
  %106 = getelementptr inbounds nuw %"class.icu_77::RBBINode", ptr %105, i32 0, i32 0
  %107 = load i32, ptr %106, align 8, !tbaa !58
  %108 = icmp eq i32 %107, 11
  br i1 %108, label %109, label %118

109:                                              ; preds = %104, %99, %94
  %110 = load ptr, ptr %4, align 8, !tbaa !37
  %111 = getelementptr inbounds nuw %"class.icu_77::RBBINode", ptr %110, i32 0, i32 14
  %112 = load ptr, ptr %111, align 8, !tbaa !60
  %113 = load ptr, ptr %4, align 8, !tbaa !37
  %114 = getelementptr inbounds nuw %"class.icu_77::RBBINode", ptr %113, i32 0, i32 2
  %115 = load ptr, ptr %114, align 8, !tbaa !48
  %116 = getelementptr inbounds nuw %"class.icu_77::RBBINode", ptr %115, i32 0, i32 14
  %117 = load ptr, ptr %116, align 8, !tbaa !60
  call void @_ZN6icu_7716RBBITableBuilder6setAddEPNS_7UVectorES2_(ptr noundef nonnull align 8 dereferenceable(52) %5, ptr noundef %112, ptr noundef %117)
  br label %118

118:                                              ; preds = %109, %104
  br label %119

119:                                              ; preds = %118, %93
  br label %120

120:                                              ; preds = %8, %29, %119, %47
  ret void
}