; Function Attrs: mustprogress uwtable
define void @_ZN6icu_7716RBBITableBuilder12calcFirstPosEPNS_8RBBINodeE(ptr noundef nonnull align 8 dereferenceable(52) %0, ptr noundef %1) local_unnamed_addr #0 align 2 {
  %3 = icmp eq ptr %1, null
  br i1 %3, label %47, label %4

4:                                                ; preds = %2
  %5 = load i32, ptr %1, align 8, !tbaa !52
  %.off = add i32 %5, -3
  %switch = icmp ult i32 %.off, 4
  br i1 %switch, label %6, label %11

6:                                                ; preds = %4
  %7 = getelementptr inbounds nuw i8, ptr %1, i64 136
  %8 = load ptr, ptr %7, align 8, !tbaa !54
  %9 = getelementptr inbounds nuw i8, ptr %0, i64 16
  %10 = load ptr, ptr %9, align 8, !tbaa !15
  tail call void @_ZN6icu_777UVector10addElementEPvR10UErrorCode(ptr noundef nonnull align 8 dereferenceable(40) %8, ptr noundef nonnull %1, ptr noundef nonnull align 4 dereferenceable(4) %10)
  br label %47

11:                                               ; preds = %4
  %12 = getelementptr inbounds nuw i8, ptr %1, i64 16
  %13 = load ptr, ptr %12, align 8, !tbaa !43
  tail call void @_ZN6icu_7716RBBITableBuilder12calcFirstPosEPNS_8RBBINodeE(ptr noundef nonnull align 8 dereferenceable(52) %0, ptr noundef %13)
  %14 = getelementptr inbounds nuw i8, ptr %1, i64 24
  %15 = load ptr, ptr %14, align 8, !tbaa !48
  tail call void @_ZN6icu_7716RBBITableBuilder12calcFirstPosEPNS_8RBBINodeE(ptr noundef nonnull align 8 dereferenceable(52) %0, ptr noundef %15)
  %16 = load i32, ptr %1, align 8, !tbaa !52
  switch i32 %16, label %47 [
    i32 9, label %17
    i32 8, label %27
    i32 10, label %41
    i32 12, label %41
    i32 11, label %41
  ]

17:                                               ; preds = %11
  %18 = getelementptr inbounds nuw i8, ptr %1, i64 136
  %19 = load ptr, ptr %18, align 8, !tbaa !54
  %20 = load ptr, ptr %12, align 8, !tbaa !43
  %21 = getelementptr inbounds nuw i8, ptr %20, i64 136
  %22 = load ptr, ptr %21, align 8, !tbaa !54
  tail call void @_ZN6icu_7716RBBITableBuilder6setAddEPNS_7UVectorES2_(ptr noundef nonnull align 8 dereferenceable(52) %0, ptr noundef %19, ptr noundef %22)
  %23 = load ptr, ptr %18, align 8, !tbaa !54
  %24 = load ptr, ptr %14, align 8, !tbaa !48
  %25 = getelementptr inbounds nuw i8, ptr %24, i64 136
  %26 = load ptr, ptr %25, align 8, !tbaa !54
  tail call void @_ZN6icu_7716RBBITableBuilder6setAddEPNS_7UVectorES2_(ptr noundef nonnull align 8 dereferenceable(52) %0, ptr noundef %23, ptr noundef %26)
  br label %47

27:                                               ; preds = %11
  %28 = getelementptr inbounds nuw i8, ptr %1, i64 136
  %29 = load ptr, ptr %28, align 8, !tbaa !54
  %30 = load ptr, ptr %12, align 8, !tbaa !43
  %31 = getelementptr inbounds nuw i8, ptr %30, i64 136
  %32 = load ptr, ptr %31, align 8, !tbaa !54
  tail call void @_ZN6icu_7716RBBITableBuilder6setAddEPNS_7UVectorES2_(ptr noundef nonnull align 8 dereferenceable(52) %0, ptr noundef %29, ptr noundef %32)
  %33 = load ptr, ptr %12, align 8, !tbaa !43
  %34 = getelementptr inbounds nuw i8, ptr %33, i64 120
  %35 = load i8, ptr %34, align 8, !tbaa !53
  %.not = icmp eq i8 %35, 0
  br i1 %.not, label %47, label %36

36:                                               ; preds = %27
  %37 = load ptr, ptr %28, align 8, !tbaa !54
  %38 = load ptr, ptr %14, align 8, !tbaa !48
  %39 = getelementptr inbounds nuw i8, ptr %38, i64 136
  %40 = load ptr, ptr %39, align 8, !tbaa !54
  tail call void @_ZN6icu_7716RBBITableBuilder6setAddEPNS_7UVectorES2_(ptr noundef nonnull align 8 dereferenceable(52) %0, ptr noundef %37, ptr noundef %40)
  br label %47

41:                                               ; preds = %11, %11, %11
  %42 = getelementptr inbounds nuw i8, ptr %1, i64 136
  %43 = load ptr, ptr %42, align 8, !tbaa !54
  %44 = load ptr, ptr %12, align 8, !tbaa !43
  %45 = getelementptr inbounds nuw i8, ptr %44, i64 136
  %46 = load ptr, ptr %45, align 8, !tbaa !54
  tail call void @_ZN6icu_7716RBBITableBuilder6setAddEPNS_7UVectorES2_(ptr noundef nonnull align 8 dereferenceable(52) %0, ptr noundef %43, ptr noundef %46)
  br label %47

47:                                               ; preds = %11, %36, %27, %41, %2, %17, %6
  ret void
}